target datalayout = "e-m:e-p270:32:32-p271:32:32-p272:64:64-i64:64-i128:128-f80:128-n8:16:32:64-S128"
target triple = "x86_64-pc-linux-gnu"

%struct.QMetaObject = type { %"struct.QMetaObject::Data" }
%"struct.QMetaObject::Data" = type { %"struct.QMetaObject::SuperData", ptr, ptr, ptr, ptr, ptr, ptr }
%"struct.QMetaObject::SuperData" = type { ptr }
%class.QString = type { %struct.QArrayDataPointer }
%struct.QArrayDataPointer = type { ptr, ptr, i64 }
%class.TrafficTab = type <{ %class.DetachableTabWidget, %class.QList, %class.QMap, ptr, ptr, ptr, ptr, i8, i8, [6 x i8] }>
%class.DetachableTabWidget = type { %class.QTabWidget, %class.QString }
%class.QTabWidget = type { %class.QWidget }
%class.QWidget = type { %class.QObject, %class.QPaintDevice.base, ptr }
%class.QObject = type { ptr, %class.QScopedPointer }
%class.QScopedPointer = type { ptr }
%class.QPaintDevice.base = type <{ ptr, i16 }>
%class.QList = type { %struct.QArrayDataPointer.0 }
%struct.QArrayDataPointer.0 = type { ptr, ptr, i64 }
%class.QMap = type { %"class.QtPrivate::QExplicitlySharedDataPointerV2" }
%"class.QtPrivate::QExplicitlySharedDataPointerV2" = type { ptr }
%class.QModelIndex = type { i32, i32, i64, ptr }

@_ZN13ATapDataModel16staticMetaObjectE = external global %struct.QMetaObject, align 8
@_ZN22TrafficDataFilterProxy16staticMetaObjectE = external global %struct.QMetaObject, align 8

; Function Attrs: mustprogress null_pointer_is_valid sspstrong uwtable
define linkonce_odr noundef ptr @_ZNK11QMetaObject4castEP7QObject(ptr noundef align 8 dereferenceable_or_null(56) %0, ptr noundef %1) #2 comdat align 2 {
  %3 = alloca ptr, align 8
  %4 = alloca ptr, align 8
  store ptr %0, ptr %3, align 8
  store ptr %1, ptr %4, align 8
  %5 = load ptr, ptr %3, align 8
  %6 = load ptr, ptr %4, align 8
  %7 = call noundef ptr @_ZNK11QMetaObject4castEPK7QObject(ptr noundef align 8 dereferenceable_or_null(56) %5, ptr noundef %6)
  ret ptr %7
}

; Function Attrs: inlinehint mustprogress null_pointer_is_valid sspstrong uwtable
define linkonce_odr noundef ptr @_Z12qobject_castIP13ATapDataModelET_P7QObject(ptr noundef %0) #7 comdat {
  %2 = alloca ptr, align 8
  store ptr %0, ptr %2, align 8
  %3 = load ptr, ptr %2, align 8
  %4 = call noundef ptr @_ZNK11QMetaObject4castEP7QObject(ptr noundef align 8 dereferenceable_or_null(56) @_ZN13ATapDataModel16staticMetaObjectE, ptr noundef %3)
  ret ptr %4
}

; Function Attrs: inlinehint mustprogress null_pointer_is_valid sspstrong uwtable
define linkonce_odr noundef ptr @_Z12qobject_castIPK22TrafficDataFilterProxyET_PK7QObject(ptr noundef %0) #7 comdat {
  %2 = alloca ptr, align 8
  store ptr %0, ptr %2, align 8
  %3 = load ptr, ptr %2, align 8
  %4 = call noundef ptr @_ZNK11QMetaObject4castEPK7QObject(ptr noundef align 8 dereferenceable_or_null(56) @_ZN22TrafficDataFilterProxy16staticMetaObjectE, ptr noundef %3)
  ret ptr %4
}

; Function Attrs: inlinehint mustprogress nounwind null_pointer_is_valid sspstrong uwtable
define linkonce_odr noundef ptr @_ZNK11QModelIndex5modelEv(ptr noundef align 8 dereferenceable_or_null(24) %0) #1 comdat align 2 {
  %2 = alloca ptr, align 8
  store ptr %0, ptr %2, align 8
  %3 = load ptr, ptr %2, align 8
  %4 = getelementptr inbounds nuw %class.QModelIndex, ptr %3, i32 0, i32 3
  %5 = load ptr, ptr %4, align 8
  ret ptr %5
}

; Function Attrs: inlinehint mustprogress nounwind null_pointer_is_valid sspstrong uwtable
define linkonce_odr noundef zeroext i1 @_ZNK11QModelIndex7isValidEv(ptr noundef align 8 dereferenceable_or_null(24) %0) #1 comdat align 2 {
  %2 = alloca ptr, align 8
  store ptr %0, ptr %2, align 8
  %3 = load ptr, ptr %2, align 8
  %4 = getelementptr inbounds nuw %class.QModelIndex, ptr %3, i32 0, i32 0
  %5 = load i32, ptr %4, align 8
  %6 = icmp sge i32 %5, 0
  br i1 %6, label %7, label %15

7:                                                ; preds = %1
  %8 = getelementptr inbounds nuw %class.QModelIndex, ptr %3, i32 0, i32 1
  %9 = load i32, ptr %8, align 4
  %10 = icmp sge i32 %9, 0
  br i1 %10, label %11, label %15

11:                                               ; preds = %7
  %12 = getelementptr inbounds nuw %class.QModelIndex, ptr %3, i32 0, i32 3
  %13 = load ptr, ptr %12, align 8
  %14 = icmp ne ptr %13, null
  br label %15

15:                                               ; preds = %11, %7, %1
  %16 = phi i1 [ false, %7 ], [ false, %1 ], [ %14, %11 ]
  ret i1 %16
}

; Function Attrs: mustprogress null_pointer_is_valid sspstrong uwtable
define void @_ZN10TrafficTab20doCurrentIndexChangeERK11QModelIndexS2_(ptr noundef align 8 dereferenceable_or_null(130) %0, ptr noundef align 8 dereferenceable(24) %1, ptr noundef align 8 dereferenceable(24) %2) #2 align 2 {
  %4 = alloca ptr, align 8
  %5 = alloca ptr, align 8
  %6 = alloca ptr, align 8
  %7 = alloca ptr, align 8
  %8 = alloca i32, align 4
  %9 = alloca ptr, align 8
  %10 = alloca i32, align 4
  %11 = alloca i32, align 4
  store ptr %0, ptr %4, align 8
  store ptr %1, ptr %5, align 8
  store ptr %2, ptr %6, align 8
  %12 = load ptr, ptr %4, align 8
  %13 = load ptr, ptr %5, align 8
  %14 = call noundef zeroext i1 @_ZNK11QModelIndex7isValidEv(ptr noundef align 8 dereferenceable_or_null(24) %13) #16
  br i1 %14, label %16, label %15

15:                                               ; preds = %3
  br label %40

16:                                               ; preds = %3
  call void @llvm.lifetime.start.p0(i64 8, ptr %7) #16
  %17 = load ptr, ptr %5, align 8
  %18 = call noundef ptr @_ZNK11QModelIndex5modelEv(ptr noundef align 8 dereferenceable_or_null(24) %17) #16
  %19 = call noundef ptr @_Z12qobject_castIPK22TrafficDataFilterProxyET_PK7QObject(ptr noundef %18)
  store ptr %19, ptr %7, align 8
  %20 = load ptr, ptr %7, align 8
  %21 = icmp ne ptr %20, null
  br i1 %21, label %23, label %22

22:                                               ; preds = %16
  store i32 1, ptr %8, align 4
  br label %38

23:                                               ; preds = %16
  call void @llvm.lifetime.start.p0(i64 8, ptr %9) #16
  %24 = load ptr, ptr %7, align 8
  %25 = call noundef ptr @_ZNK19QAbstractProxyModel11sourceModelEv(ptr noundef align 8 dereferenceable_or_null(16) %24)
  %26 = call noundef ptr @_Z12qobject_castIP13ATapDataModelET_P7QObject(ptr noundef %25)
  store ptr %26, ptr %9, align 8
  %27 = load ptr, ptr %9, align 8
  %28 = icmp ne ptr %27, null
  br i1 %28, label %30, label %29

29:                                               ; preds = %23
  store i32 1, ptr %8, align 4
  br label %37

30:                                               ; preds = %23
  call void @llvm.lifetime.start.p0(i64 4, ptr %10) #16
  %31 = getelementptr inbounds nuw %class.TrafficTab, ptr %12, i32 0, i32 2
  call void @llvm.lifetime.start.p0(i64 4, ptr %11) #16
  %32 = load ptr, ptr %9, align 8
  %33 = call noundef i32 @_ZNK13ATapDataModel7protoIdEv(ptr noundef align 8 dereferenceable_or_null(120) %32)
  store i32 %33, ptr %11, align 4
  %34 = call noundef align 4 dereferenceable(4) ptr @_ZN4QMapIiiEixERKi(ptr noundef align 8 dereferenceable_or_null(8) %31, ptr noundef align 4 dereferenceable(4) %11)
  %35 = load i32, ptr %34, align 4
  call void @llvm.lifetime.end.p0(i64 4, ptr %11) #16
  store i32 %35, ptr %10, align 4
  %36 = load i32, ptr %10, align 4
  call void @_ZN10TrafficTab14tabDataChangedEii(ptr noundef align 8 dereferenceable_or_null(130) %12, i32 noundef %36, i32 noundef 0)
  call void @llvm.lifetime.end.p0(i64 4, ptr %10) #16
  store i32 0, ptr %8, align 4
  br label %37

37:                                               ; preds = %30, %29
  call void @llvm.lifetime.end.p0(i64 8, ptr %9) #16
  br label %38

38:                                               ; preds = %37, %22
  call void @llvm.lifetime.end.p0(i64 8, ptr %7) #16
  %39 = load i32, ptr %8, align 4
  switch i32 %39, label %41 [
    i32 0, label %40
    i32 1, label %40
  ]

40:                                               ; preds = %15, %38, %38
  ret void

41:                                               ; preds = %38
  unreachable
}