; Function Attrs: mustprogress null_pointer_is_valid sspstrong uwtable
define void @_ZN10TrafficTab20doCurrentIndexChangeERK11QModelIndexS2_(ptr noundef align 8 dereferenceable_or_null(130) %0, ptr noundef readonly align 8 captures(none) dereferenceable(24) %1, ptr readnone align 8 captures(none) %2) #3 align 2 {
  %4 = alloca i32, align 4
  %5 = load i32, ptr %1, align 8
  %6 = icmp sgt i32 %5, -1
  %7 = getelementptr inbounds nuw i8, ptr %1, i64 4
  %8 = load i32, ptr %7, align 4
  %9 = icmp sgt i32 %8, -1
  %or.cond = select i1 %6, i1 %9, i1 false
  %10 = getelementptr inbounds nuw i8, ptr %1, i64 16
  %11 = load ptr, ptr %10, align 8
  %12 = icmp ne ptr %11, null
  %or.cond13 = select i1 %or.cond, i1 %12, i1 false
  br i1 %or.cond13, label %13, label %_ZNK11QModelIndex7isValidEv.exit.thread

13:                                               ; preds = %3
  %14 = tail call noundef ptr @_ZNK11QMetaObject4castEPK7QObject(ptr noundef nonnull align 8 dereferenceable_or_null(56) @_ZN22TrafficDataFilterProxy16staticMetaObjectE, ptr noundef nonnull %11)
  %.not = icmp eq ptr %14, null
  br i1 %.not, label %_ZNK11QModelIndex7isValidEv.exit.thread, label %15

15:                                               ; preds = %13
  %16 = tail call noundef ptr @_ZNK19QAbstractProxyModel11sourceModelEv(ptr noundef nonnull align 8 dereferenceable_or_null(16) %14)
  %17 = tail call noundef ptr @_ZNK11QMetaObject4castEPK7QObject(ptr noundef nonnull align 8 dereferenceable_or_null(56) @_ZN13ATapDataModel16staticMetaObjectE, ptr noundef %16)
  %.not8 = icmp eq ptr %17, null
  br i1 %.not8, label %_ZNK11QModelIndex7isValidEv.exit.thread, label %18

18:                                               ; preds = %15
  %19 = getelementptr inbounds nuw i8, ptr %0, i64 88
  call void @llvm.lifetime.start.p0(i64 4, ptr nonnull %4) #25
  %20 = tail call noundef i32 @_ZNK13ATapDataModel7protoIdEv(ptr noundef nonnull align 8 dereferenceable_or_null(120) %17)
  store i32 %20, ptr %4, align 4
  %21 = call noundef align 4 dereferenceable(4) ptr @_ZN4QMapIiiEixERKi(ptr noundef nonnull align 8 dereferenceable_or_null(8) %19, ptr noundef nonnull align 4 dereferenceable(4) %4)
  %22 = load i32, ptr %21, align 4
  call void @llvm.lifetime.end.p0(i64 4, ptr nonnull %4) #25
  call void @_ZN10TrafficTab14tabDataChangedEii(ptr noundef align 8 dereferenceable_or_null(130) %0, i32 noundef %22, i32 noundef 0)
  br label %_ZNK11QModelIndex7isValidEv.exit.thread

_ZNK11QModelIndex7isValidEv.exit.thread:          ; preds = %3, %13, %15, %18
  ret void
}